target datalayout = "e-m:e-p270:32:32-p271:32:32-p272:64:64-i64:64-i128:128-f80:128-n8:16:32:64-S128"
target triple = "x86_64-pc-linux-gnu"

; Function Attrs: nounwind uwtable
define ptr @Wln_NtkRetime(ptr noundef %0, i32 noundef %1, i32 noundef %2, i32 noundef %3) #0 {
  %5 = alloca ptr, align 8
  %6 = alloca i32, align 4
  %7 = alloca i32, align 4
  %8 = alloca i32, align 4
  store ptr %0, ptr %5, align 8, !tbaa !18
  store i32 %1, ptr %6, align 4, !tbaa !8
  store i32 %2, ptr %7, align 4, !tbaa !8
  store i32 %3, ptr %8, align 4, !tbaa !8
  %9 = load i32, ptr %6, align 4, !tbaa !8
  %10 = icmp ne i32 %9, 0
  br i1 %10, label %11, label %14

11:                                               ; preds = %4
  %12 = load ptr, ptr %5, align 8, !tbaa !18
  %13 = load i32, ptr %8, align 4, !tbaa !8
  call void @Wln_RetMarkPaths(ptr noundef %12, i32 noundef %13)
  br label %14

14:                                               ; preds = %11, %4
  %15 = load ptr, ptr %5, align 8, !tbaa !18
  %16 = load i32, ptr %7, align 4, !tbaa !8
  %17 = load i32, ptr %8, align 4, !tbaa !8
  %18 = call ptr @Wln_NtkRetime_int(ptr noundef %15, i32 noundef %16, i32 noundef %17)
  ret ptr %18
}