; Function Attrs: nounwind uwtable
define noalias noundef ptr @Wln_NtkRetime(ptr noundef %0, i32 noundef %1, i32 noundef %2, i32 noundef %3) local_unnamed_addr #4 {
  %.not = icmp eq i32 %1, 0
  br i1 %.not, label %6, label %5

5:                                                ; preds = %4
  tail call void @Wln_RetMarkPaths(ptr noundef %0, i32 noundef %3)
  br label %6

6:                                                ; preds = %5, %4
  %7 = tail call ptr @Wln_NtkRetime_int(ptr noundef %0, i32 noundef %2, i32 noundef %3)
  ret ptr %7
}